; Function Attrs: mustprogress nofree norecurse nounwind willreturn memory(readwrite, inaccessiblemem: none) uwtable
define void @_ZNK32pxrInternal_v0_24__pxrReserved__16SdfValueTypeName10GetAsTokenEv(ptr dead_on_unwind noalias writable writeonly sret(%"class.pxrInternal_v0_24__pxrReserved__::TfToken") align 8 captures(none) initializes((0, 8)) %0, ptr noundef nonnull readonly align 8 captures(none) dereferenceable(8) %1) local_unnamed_addr #4 align 2 personality ptr @__gxx_personality_v0 {
  %3 = load ptr, ptr %1, align 8
  %4 = getelementptr inbounds nuw i8, ptr %3, i64 8
  %5 = load i64, ptr %4, align 8
  store i64 %5, ptr %0, align 8
  %6 = and i64 %5, 7
  %.not.i.i = icmp eq i64 %6, 0
  br i1 %.not.i.i, label %_ZN32pxrInternal_v0_24__pxrReserved__7TfTokenC2ERKS0_.exit, label %7

7:                                                ; preds = %2
  %8 = and i64 %5, -8
  %9 = inttoptr i64 %8 to ptr
  %10 = atomicrmw add ptr %9, i32 2 monotonic, align 4
  %11 = and i32 %10, 1
  %.not1.i.i = icmp eq i32 %11, 0
  br i1 %.not1.i.i, label %12, label %_ZN32pxrInternal_v0_24__pxrReserved__7TfTokenC2ERKS0_.exit

12:                                               ; preds = %7
  store ptr %9, ptr %0, align 8
  br label %_ZN32pxrInternal_v0_24__pxrReserved__7TfTokenC2ERKS0_.exit

_ZN32pxrInternal_v0_24__pxrReserved__7TfTokenC2ERKS0_.exit: ; preds = %2, %7, %12
  ret void
}